; Function Attrs: nounwind uwtable
define void @Abc_NtkReverse_rec(ptr noundef readonly captures(none) %0, ptr noundef captures(none) %1) local_unnamed_addr #0 {
  %.val2.i = load ptr, ptr %0, align 8
  %3 = getelementptr i8, ptr %0, i64 16
  %.val3.i = load i32, ptr %3, align 8
  %4 = getelementptr inbounds nuw i8, ptr %.val2.i, i64 224
  %5 = add nsw i32 %.val3.i, 1
  tail call fastcc void @Vec_IntFillExtra(ptr noundef nonnull %4, i32 noundef %5)
  %6 = getelementptr i8, ptr %.val2.i, i64 232
  %.val.i.i.i = load ptr, ptr %6, align 8
  %7 = sext i32 %.val3.i to i64
  %8 = getelementptr inbounds i32, ptr %.val.i.i.i, i64 %7
  %9 = load i32, ptr %8, align 4
  %.val.i = load ptr, ptr %0, align 8
  %10 = getelementptr inbounds nuw i8, ptr %.val.i, i64 216
  %11 = load i32, ptr %10, align 8
  %.not = icmp eq i32 %9, %11
  br i1 %.not, label %62, label %12

12:                                               ; preds = %2
  %.val14 = load i32, ptr %3, align 8
  %13 = getelementptr inbounds nuw i8, ptr %.val.i, i64 224
  %14 = add nsw i32 %.val14, 1
  tail call fastcc void @Vec_IntFillExtra(ptr noundef nonnull %13, i32 noundef %14)
  %15 = getelementptr i8, ptr %.val.i, i64 232
  %.val.i.i.i15 = load ptr, ptr %15, align 8
  %16 = sext i32 %.val14 to i64
  %17 = getelementptr inbounds i32, ptr %.val.i.i.i15, i64 %16
  store i32 %11, ptr %17, align 4
  %18 = getelementptr i8, ptr %0, i64 44
  %.val16 = load i32, ptr %18, align 4
  %19 = icmp sgt i32 %.val16, 0
  br i1 %19, label %.lr.ph, label %.critedge

.lr.ph:                                           ; preds = %12
  %20 = getelementptr i8, ptr %0, i64 48
  br label %21

21:                                               ; preds = %.lr.ph, %21
  %indvars.iv = phi i64 [ 0, %.lr.ph ], [ %indvars.iv.next, %21 ]
  %.val10 = load ptr, ptr %0, align 8
  %.val11 = load ptr, ptr %20, align 8
  %22 = getelementptr i8, ptr %.val10, i64 32
  %.val10.val = load ptr, ptr %22, align 8
  %23 = getelementptr i8, ptr %.val10.val, i64 8
  %.val10.val.val = load ptr, ptr %23, align 8
  %24 = getelementptr inbounds nuw i32, ptr %.val11, i64 %indvars.iv
  %25 = load i32, ptr %24, align 4
  %26 = sext i32 %25 to i64
  %27 = getelementptr inbounds ptr, ptr %.val10.val.val, i64 %26
  %28 = load ptr, ptr %27, align 8
  tail call void @Abc_NtkReverse_rec(ptr noundef %28, ptr noundef %1)
  %indvars.iv.next = add nuw nsw i64 %indvars.iv, 1
  %.val = load i32, ptr %18, align 4
  %29 = sext i32 %.val to i64
  %30 = icmp slt i64 %indvars.iv.next, %29
  br i1 %30, label %21, label %.critedge, !llvm.loop !129

.critedge:                                        ; preds = %21, %12
  %.val12 = load i32, ptr %3, align 8
  %31 = getelementptr inbounds nuw i8, ptr %1, i64 4
  %32 = load i32, ptr %31, align 4
  %33 = load i32, ptr %1, align 8
  %34 = icmp eq i32 %32, %33
  br i1 %34, label %35, label %.Vec_IntGrow.exit10_crit_edge.i

.Vec_IntGrow.exit10_crit_edge.i:                  ; preds = %.critedge
  %.phi.trans.insert.i = getelementptr inbounds nuw i8, ptr %1, i64 8
  %.pre.i = load ptr, ptr %.phi.trans.insert.i, align 8
  br label %Vec_IntPush.exit

35:                                               ; preds = %.critedge
  %36 = icmp slt i32 %32, 16
  br i1 %36, label %37, label %45

37:                                               ; preds = %35
  %38 = getelementptr inbounds nuw i8, ptr %1, i64 8
  %39 = load ptr, ptr %38, align 8
  %.not9.i.i = icmp eq ptr %39, null
  br i1 %.not9.i.i, label %42, label %40

40:                                               ; preds = %37
  %41 = tail call dereferenceable_or_null(64) ptr @realloc(ptr noundef nonnull %39, i64 noundef 64) #29
  br label %Vec_IntGrow.exit.i

42:                                               ; preds = %37
  %43 = tail call noalias dereferenceable_or_null(64) ptr @malloc(i64 noundef 64) #30
  br label %Vec_IntGrow.exit.i

Vec_IntGrow.exit.i:                               ; preds = %42, %40
  %44 = phi ptr [ %41, %40 ], [ %43, %42 ]
  store ptr %44, ptr %38, align 8
  store i32 16, ptr %1, align 8
  br label %Vec_IntPush.exit

45:                                               ; preds = %35
  %46 = shl nuw nsw i32 %32, 1
  %47 = getelementptr inbounds nuw i8, ptr %1, i64 8
  %48 = load ptr, ptr %47, align 8
  %.not9.i9.i = icmp eq ptr %48, null
  %49 = zext nneg i32 %46 to i64
  %50 = shl nuw nsw i64 %49, 2
  br i1 %.not9.i9.i, label %53, label %51

51:                                               ; preds = %45
  %52 = tail call ptr @realloc(ptr noundef nonnull %48, i64 noundef %50) #29
  br label %55

53:                                               ; preds = %45
  %54 = tail call noalias ptr @malloc(i64 noundef %50) #30
  br label %55

55:                                               ; preds = %53, %51
  %56 = phi ptr [ %52, %51 ], [ %54, %53 ]
  store ptr %56, ptr %47, align 8
  store i32 %46, ptr %1, align 8
  br label %Vec_IntPush.exit

Vec_IntPush.exit:                                 ; preds = %.Vec_IntGrow.exit10_crit_edge.i, %Vec_IntGrow.exit.i, %55
  %57 = phi ptr [ %.pre.i, %.Vec_IntGrow.exit10_crit_edge.i ], [ %56, %55 ], [ %44, %Vec_IntGrow.exit.i ]
  %58 = load i32, ptr %31, align 4
  %59 = add nsw i32 %58, 1
  store i32 %59, ptr %31, align 4
  %60 = sext i32 %58 to i64
  %61 = getelementptr inbounds i32, ptr %57, i64 %60
  store i32 %.val12, ptr %61, align 4
  br label %62

62:                                               ; preds = %2, %Vec_IntPush.exit
  ret void
}